target datalayout = "e-m:e-p270:32:32-p271:32:32-p272:64:64-i64:64-i128:128-f80:128-n8:16:32:64-S128"
target triple = "x86_64-pc-linux-gnu"

%"class.std::__cxx11::basic_string" = type { %"struct.std::__cxx11::basic_string<char>::_Alloc_hider", i64, %union.anon }
%"struct.std::__cxx11::basic_string<char>::_Alloc_hider" = type { ptr }
%union.anon = type { i64, [8 x i8] }
%class.AstNode = type { ptr, ptr, ptr, ptr, ptr, ptr, ptr, ptr, %class.VNType, %struct.anon, i8, i32, ptr, ptr, ptr, ptr, %class.VNUser, i32, i32, %class.VNUser, %class.VNUser, i32, i32, %class.VNUser }
%class.VNType = type { i16 }
%struct.anon = type { i8 }
%class.VNUser = type { %union.anon.77 }
%union.anon.77 = type { ptr }
%class.VLifetime = type { i8 }
%class.AstVarScope = type { %class.AstNode, i8, ptr, ptr }
%class.anon.252 = type { ptr, ptr, ptr }
%class.AstVar = type <{ %class.AstNode, %"class.std::__cxx11::basic_string", %"class.std::__cxx11::basic_string", %"class.std::__cxx11::basic_string", %class.VVarType, %class.VDirection, %class.VDirection, %class.VLifetime, %class.VVarAttrClocker, [3 x i8], i32, i48, [4 x i8], ptr }>
%class.VVarType = type { i8 }
%class.VDirection = type { i8 }
%class.VVarAttrClocker = type { i8 }

@.str.493 = private unnamed_addr constant [4 x i8] c"__V\00", align 1

; Function Attrs: mustprogress uwtable
define linkonce_odr dso_local noundef ptr @_ZN7AstNode7addNextI11AstNodeStmt9AstAssignEEPT_S4_PT0_(ptr noundef %0, ptr noundef %1) #4 comdat align 2 {
  %3 = alloca ptr, align 8
  %4 = alloca ptr, align 8
  store ptr %0, ptr %3, align 8
  store ptr %1, ptr %4, align 8
  %5 = load ptr, ptr %3, align 8
  %6 = load ptr, ptr %4, align 8
  %7 = call noundef ptr @_ZN7AstNode7addNextIS_S_EEPT_S2_PT0_(ptr noundef %5, ptr noundef %6)
  ret ptr %7
}

; Function Attrs: mustprogress nounwind uwtable
define linkonce_odr dso_local void @_ZN6AstVar7noResetEb(ptr noundef nonnull align 8 dereferenceable(280) %0, i1 noundef zeroext %1) #5 comdat align 2 {
  %3 = alloca ptr, align 8
  %4 = alloca i8, align 1
  store ptr %0, ptr %3, align 8
  %5 = zext i1 %1 to i8
  store i8 %5, ptr %4, align 1
  %6 = load ptr, ptr %3, align 8
  %7 = load i8, ptr %4, align 1
  %8 = trunc i8 %7 to i1
  %9 = getelementptr inbounds %class.AstVar, ptr %6, i32 0, i32 11
  %10 = zext i1 %8 to i64
  %11 = load i64, ptr %9, align 4
  %12 = shl i64 %10, 35
  %13 = and i64 %11, -34359738369
  %14 = or i64 %13, %12
  store i64 %14, ptr %9, align 4
  ret void
}

; Function Attrs: mustprogress nounwind uwtable
define linkonce_odr dso_local noundef ptr @_ZNK11AstVarScope4varpEv(ptr noundef nonnull align 8 dereferenceable(176) %0) #5 comdat align 2 {
  %2 = alloca ptr, align 8
  store ptr %0, ptr %2, align 8
  %3 = load ptr, ptr %2, align 8
  %4 = getelementptr inbounds %class.AstVarScope, ptr %3, i32 0, i32 3
  %5 = load ptr, ptr %4, align 8
  ret ptr %5
}

; Function Attrs: mustprogress uwtable
define linkonce_odr dso_local void @_ZStplIcSt11char_traitsIcESaIcEENSt7__cxx1112basic_stringIT_T0_T1_EEOS8_RKS8_(ptr dead_on_unwind noalias writable sret(%"class.std::__cxx11::basic_string") align 8 %0, ptr noundef nonnull align 8 dereferenceable(32) %1, ptr noundef nonnull align 8 dereferenceable(32) %2) #4 comdat {
  %4 = alloca ptr, align 8
  %5 = alloca ptr, align 8
  %6 = alloca ptr, align 8
  store ptr %0, ptr %4, align 8
  store ptr %1, ptr %5, align 8
  store ptr %2, ptr %6, align 8
  %7 = load ptr, ptr %5, align 8
  %8 = load ptr, ptr %6, align 8
  %9 = call noundef nonnull align 8 dereferenceable(32) ptr @_ZNSt7__cxx1112basic_stringIcSt11char_traitsIcESaIcEE6appendERKS4_(ptr noundef nonnull align 8 dereferenceable(32) %7, ptr noundef nonnull align 8 dereferenceable(32) %8)
  call void @_ZNSt7__cxx1112basic_stringIcSt11char_traitsIcESaIcEEC1EOS4_(ptr noundef nonnull align 8 dereferenceable(32) %0, ptr noundef nonnull align 8 dereferenceable(32) %9) #3
  ret void
}

; Function Attrs: mustprogress uwtable
define internal noundef ptr @"_ZZN7V3Sched12_GLOBAL__N_114createEvalLoopEP10AstNetlistRKNSt7__cxx1112basic_stringIcSt11char_traitsIcESaIcEEESA_bP11AstVarScopeP8AstCFuncP11AstNodeStmtSG_SG_St8functionIFSG_SC_EEENK3$_0clESA_ij"(ptr noundef nonnull align 8 dereferenceable(24) %0, ptr noundef nonnull align 8 dereferenceable(32) %1, i32 noundef %2, i32 noundef %3) #4 align 2 personality ptr @__gxx_personality_v0 {
  %5 = alloca ptr, align 8
  %6 = alloca ptr, align 8
  %7 = alloca i32, align 4
  %8 = alloca i32, align 4
  %9 = alloca ptr, align 8
  %10 = alloca %"class.std::__cxx11::basic_string", align 8
  %11 = alloca %"class.std::__cxx11::basic_string", align 8
  %12 = alloca ptr, align 8
  %13 = alloca i32, align 4
  store ptr %0, ptr %5, align 8
  store ptr %1, ptr %6, align 8
  store i32 %2, ptr %7, align 4
  store i32 %3, ptr %8, align 4
  %14 = load ptr, ptr %5, align 8
  %15 = getelementptr inbounds %class.anon.252, ptr %14, i32 0, i32 0
  %16 = load ptr, ptr %15, align 8
  %17 = load ptr, ptr %16, align 8
  %18 = getelementptr inbounds %class.anon.252, ptr %14, i32 0, i32 1
  %19 = load ptr, ptr %18, align 8
  call void @_ZStplIcSt11char_traitsIcESaIcEENSt7__cxx1112basic_stringIT_T0_T1_EEPKS5_RKS8_(ptr dead_on_unwind writable sret(%"class.std::__cxx11::basic_string") align 8 %11, ptr noundef @.str.493, ptr noundef nonnull align 8 dereferenceable(32) %19)
  %20 = load ptr, ptr %6, align 8
  invoke void @_ZStplIcSt11char_traitsIcESaIcEENSt7__cxx1112basic_stringIT_T0_T1_EEOS8_RKS8_(ptr dead_on_unwind writable sret(%"class.std::__cxx11::basic_string") align 8 %10, ptr noundef nonnull align 8 dereferenceable(32) %11, ptr noundef nonnull align 8 dereferenceable(32) %20)
          to label %21 unwind label %37

21:                                               ; preds = %4
  %22 = load i32, ptr %7, align 4
  %23 = invoke noundef ptr @_ZN8AstScope10createTempERKNSt7__cxx1112basic_stringIcSt11char_traitsIcESaIcEEEj(ptr noundef nonnull align 8 dereferenceable(208) %17, ptr noundef nonnull align 8 dereferenceable(32) %10, i32 noundef %22)
          to label %24 unwind label %41

24:                                               ; preds = %21
  call void @_ZNSt7__cxx1112basic_stringIcSt11char_traitsIcESaIcEED1Ev(ptr noundef nonnull align 8 dereferenceable(32) %10) #3
  call void @_ZNSt7__cxx1112basic_stringIcSt11char_traitsIcESaIcEED1Ev(ptr noundef nonnull align 8 dereferenceable(32) %11) #3
  store ptr %23, ptr %9, align 8
  %25 = load ptr, ptr %9, align 8
  %26 = call noundef ptr @_ZNK11AstVarScope4varpEv(ptr noundef nonnull align 8 dereferenceable(176) %25)
  call void @_ZN6AstVar7noResetEb(ptr noundef nonnull align 8 dereferenceable(280) %26, i1 noundef zeroext true)
  %27 = getelementptr inbounds %class.anon.252, ptr %14, i32 0, i32 2
  %28 = load ptr, ptr %27, align 8
  %29 = load ptr, ptr %28, align 8
  %30 = load ptr, ptr %9, align 8
  %31 = load i32, ptr %8, align 4
  %32 = call noundef ptr @_ZN7V3Sched12_GLOBAL__N_16setVarEP11AstVarScopej(ptr noundef %30, i32 noundef %31)
  %33 = call noundef ptr @_ZN7AstNode7addNextI11AstNodeStmt9AstAssignEEPT_S4_PT0_(ptr noundef %29, ptr noundef %32)
  %34 = getelementptr inbounds %class.anon.252, ptr %14, i32 0, i32 2
  %35 = load ptr, ptr %34, align 8
  store ptr %33, ptr %35, align 8
  %36 = load ptr, ptr %9, align 8
  ret ptr %36

37:                                               ; preds = %4
  %38 = landingpad { ptr, i32 }
          cleanup
  %39 = extractvalue { ptr, i32 } %38, 0
  store ptr %39, ptr %12, align 8
  %40 = extractvalue { ptr, i32 } %38, 1
  store i32 %40, ptr %13, align 4
  br label %45

41:                                               ; preds = %21
  %42 = landingpad { ptr, i32 }
          cleanup
  %43 = extractvalue { ptr, i32 } %42, 0
  store ptr %43, ptr %12, align 8
  %44 = extractvalue { ptr, i32 } %42, 1
  store i32 %44, ptr %13, align 4
  call void @_ZNSt7__cxx1112basic_stringIcSt11char_traitsIcESaIcEED1Ev(ptr noundef nonnull align 8 dereferenceable(32) %10) #3
  br label %45

45:                                               ; preds = %41, %37
  call void @_ZNSt7__cxx1112basic_stringIcSt11char_traitsIcESaIcEED1Ev(ptr noundef nonnull align 8 dereferenceable(32) %11) #3
  br label %46

46:                                               ; preds = %45
  %47 = load ptr, ptr %12, align 8
  %48 = load i32, ptr %13, align 4
  %49 = insertvalue { ptr, i32 } poison, ptr %47, 0
  %50 = insertvalue { ptr, i32 } %49, i32 %48, 1
  resume { ptr, i32 } %50
}