; Function Attrs: mustprogress uwtable
define internal fastcc noundef ptr @"_ZZN7V3Sched12_GLOBAL__N_114createEvalLoopEP10AstNetlistRKNSt7__cxx1112basic_stringIcSt11char_traitsIcESaIcEEESA_bP11AstVarScopeP8AstCFuncP11AstNodeStmtSG_SG_St8functionIFSG_SC_EEENK3$_0clESA_ij"(ptr nocapture noundef nonnull readonly align 8 dereferenceable(24) %0, ptr noundef nonnull align 8 dereferenceable(32) %1, i32 noundef %2, i32 noundef %3) unnamed_addr #3 align 2 personality ptr @__gxx_personality_v0 {
  %5 = alloca %"class.std::__cxx11::basic_string", align 8
  %6 = alloca %"class.std::__cxx11::basic_string", align 8
  %7 = load ptr, ptr %0, align 8
  %8 = load ptr, ptr %7, align 8
  %9 = getelementptr inbounds i8, ptr %0, i64 8
  %10 = load ptr, ptr %9, align 8
  call void @_ZStplIcSt11char_traitsIcESaIcEENSt7__cxx1112basic_stringIT_T0_T1_EEPKS5_RKS8_(ptr dead_on_unwind nonnull writable sret(%"class.std::__cxx11::basic_string") align 8 %6, ptr noundef nonnull @.str.493, ptr noundef nonnull align 8 dereferenceable(32) %10)
  %11 = invoke noundef nonnull align 8 dereferenceable(32) ptr @_ZNSt7__cxx1112basic_stringIcSt11char_traitsIcESaIcEE6appendERKS4_(ptr noundef nonnull align 8 dereferenceable(32) %6, ptr noundef nonnull align 8 dereferenceable(32) %1)
          to label %12 unwind label %26

12:                                               ; preds = %4
  call void @_ZNSt7__cxx1112basic_stringIcSt11char_traitsIcESaIcEEC1EOS4_(ptr noundef nonnull align 8 dereferenceable(32) %5, ptr noundef nonnull align 8 dereferenceable(32) %11) #24
  %13 = invoke noundef ptr @_ZN8AstScope10createTempERKNSt7__cxx1112basic_stringIcSt11char_traitsIcESaIcEEEj(ptr noundef nonnull align 8 dereferenceable(208) %8, ptr noundef nonnull align 8 dereferenceable(32) %5, i32 noundef %2)
          to label %14 unwind label %28

14:                                               ; preds = %12
  call void @_ZNSt7__cxx1112basic_stringIcSt11char_traitsIcESaIcEED1Ev(ptr noundef nonnull align 8 dereferenceable(32) %5) #24
  call void @_ZNSt7__cxx1112basic_stringIcSt11char_traitsIcESaIcEED1Ev(ptr noundef nonnull align 8 dereferenceable(32) %6) #24
  %15 = getelementptr inbounds i8, ptr %13, i64 168
  %16 = load ptr, ptr %15, align 8
  %17 = getelementptr inbounds i8, ptr %16, i64 260
  %18 = load i64, ptr %17, align 4
  %19 = or i64 %18, 34359738368
  store i64 %19, ptr %17, align 4
  %20 = getelementptr inbounds i8, ptr %0, i64 16
  %21 = load ptr, ptr %20, align 8
  %22 = load ptr, ptr %21, align 8
  %23 = call fastcc noundef ptr @_ZN7V3Sched12_GLOBAL__N_16setVarEP11AstVarScopej(ptr noundef nonnull %13, i32 noundef %3)
  %24 = call noundef ptr @_ZN7AstNode7addNextIS_S_EEPT_S2_PT0_(ptr noundef %22, ptr noundef nonnull %23)
  %25 = load ptr, ptr %20, align 8
  store ptr %24, ptr %25, align 8
  ret ptr %13

26:                                               ; preds = %4
  %27 = landingpad { ptr, i32 }
          cleanup
  br label %30

28:                                               ; preds = %12
  %29 = landingpad { ptr, i32 }
          cleanup
  call void @_ZNSt7__cxx1112basic_stringIcSt11char_traitsIcESaIcEED1Ev(ptr noundef nonnull align 8 dereferenceable(32) %5) #24
  br label %30

30:                                               ; preds = %28, %26
  %.pn = phi { ptr, i32 } [ %29, %28 ], [ %27, %26 ]
  call void @_ZNSt7__cxx1112basic_stringIcSt11char_traitsIcESaIcEED1Ev(ptr noundef nonnull align 8 dereferenceable(32) %6) #24
  resume { ptr, i32 } %.pn
}